target datalayout = "e-m:e-p270:32:32-p271:32:32-p272:64:64-i64:64-i128:128-f80:128-n8:16:32:64-S128"
target triple = "x86_64-pc-linux-gnu"

%struct.expert_field = type { i32, i32 }

@hf_uftp_keyinfoack = internal global i32 0, align 4
@hf_uftp_keyinfoack_func = internal global i32 0, align 4
@hf_uftp_keyinfoack_hlen = internal global i32 0, align 4
@hf_uftp_keyinfoack_verify_len = internal global i32 0, align 4
@hf_uftp_keyinfoack_verify_data = internal global i32 0, align 4
@ett_uftp_keyinfoack = internal global i32 0, align 4
@ei_uftp_length_invalid = internal global %struct.expert_field zeroinitializer, align 4
@.str.416 = private unnamed_addr constant [19 x i8] c"Invalid length: %d\00", align 1
@.str.417 = private unnamed_addr constant [36 x i8] c"Invalid length, len = %d, hlen = %d\00", align 1
@.str.418 = private unnamed_addr constant [14 x i8] c"%d bytes (%d)\00", align 1

; Function Attrs: null_pointer_is_valid sspstrong uwtable
define internal void @dissect_uftp_keyinfoack(ptr noundef %0, ptr noundef %1, ptr noundef %2) #0 {
  %4 = alloca ptr, align 8
  %5 = alloca ptr, align 8
  %6 = alloca ptr, align 8
  %7 = alloca ptr, align 8
  %8 = alloca ptr, align 8
  %9 = alloca i32, align 4
  %10 = alloca i32, align 4
  %11 = alloca i32, align 4
  %12 = alloca i32, align 4
  store ptr %0, ptr %4, align 8
  store ptr %1, ptr %5, align 8
  store ptr %2, ptr %6, align 8
  call void @llvm.lifetime.start.p0(i64 8, ptr %7) #6
  store ptr null, ptr %7, align 8
  call void @llvm.lifetime.start.p0(i64 8, ptr %8) #6
  store ptr null, ptr %8, align 8
  call void @llvm.lifetime.start.p0(i64 4, ptr %9) #6
  store i32 0, ptr %9, align 4
  call void @llvm.lifetime.start.p0(i64 4, ptr %10) #6
  call void @llvm.lifetime.start.p0(i64 4, ptr %11) #6
  %13 = load ptr, ptr %4, align 8
  %14 = call i32 @tvb_reported_length(ptr noundef %13)
  %15 = icmp ult i32 %14, 4
  br i1 %15, label %16, label %24

16:                                               ; preds = %3
  %17 = load ptr, ptr %6, align 8
  %18 = load ptr, ptr %5, align 8
  %19 = load ptr, ptr %4, align 8
  %20 = load i32, ptr %9, align 4
  %21 = load ptr, ptr %4, align 8
  %22 = call i32 @tvb_reported_length(ptr noundef %21)
  %23 = call ptr (ptr, ptr, ptr, ptr, i32, i32, ptr, ...) @proto_tree_add_expert_format(ptr noundef %17, ptr noundef %18, ptr noundef @ei_uftp_length_invalid, ptr noundef %19, i32 noundef %20, i32 noundef -1, ptr noundef @.str.416, i32 noundef %22)
  store i32 1, ptr %12, align 4
  br label %90

24:                                               ; preds = %3
  %25 = load ptr, ptr %4, align 8
  %26 = call zeroext i8 @tvb_get_uint8(ptr noundef %25, i32 noundef 1)
  %27 = zext i8 %26 to i32
  %28 = mul i32 %27, 4
  store i32 %28, ptr %10, align 4
  %29 = load ptr, ptr %4, align 8
  %30 = call zeroext i8 @tvb_get_uint8(ptr noundef %29, i32 noundef 2)
  %31 = zext i8 %30 to i32
  store i32 %31, ptr %11, align 4
  %32 = load ptr, ptr %4, align 8
  %33 = call i32 @tvb_reported_length(ptr noundef %32)
  %34 = load i32, ptr %10, align 4
  %35 = icmp slt i32 %33, %34
  br i1 %35, label %41, label %36

36:                                               ; preds = %24
  %37 = load i32, ptr %10, align 4
  %38 = load i32, ptr %11, align 4
  %39 = add i32 4, %38
  %40 = icmp slt i32 %37, %39
  br i1 %40, label %41, label %50

41:                                               ; preds = %36, %24
  %42 = load ptr, ptr %6, align 8
  %43 = load ptr, ptr %5, align 8
  %44 = load ptr, ptr %4, align 8
  %45 = load i32, ptr %9, align 4
  %46 = load ptr, ptr %4, align 8
  %47 = call i32 @tvb_reported_length(ptr noundef %46)
  %48 = load i32, ptr %10, align 4
  %49 = call ptr (ptr, ptr, ptr, ptr, i32, i32, ptr, ...) @proto_tree_add_expert_format(ptr noundef %42, ptr noundef %43, ptr noundef @ei_uftp_length_invalid, ptr noundef %44, i32 noundef %45, i32 noundef -1, ptr noundef @.str.417, i32 noundef %47, i32 noundef %48)
  store i32 1, ptr %12, align 4
  br label %90

50:                                               ; preds = %36
  %51 = load ptr, ptr %6, align 8
  %52 = load i32, ptr @hf_uftp_keyinfoack, align 4
  %53 = load ptr, ptr %4, align 8
  %54 = load i32, ptr %9, align 4
  %55 = call ptr @proto_tree_add_item(ptr noundef %51, i32 noundef %52, ptr noundef %53, i32 noundef %54, i32 noundef -1, i32 noundef 0)
  store ptr %55, ptr %7, align 8
  %56 = load ptr, ptr %7, align 8
  %57 = load i32, ptr @ett_uftp_keyinfoack, align 4
  %58 = call ptr @proto_item_add_subtree(ptr noundef %56, i32 noundef %57)
  store ptr %58, ptr %8, align 8
  %59 = load ptr, ptr %8, align 8
  %60 = load i32, ptr @hf_uftp_keyinfoack_func, align 4
  %61 = load ptr, ptr %4, align 8
  %62 = load i32, ptr %9, align 4
  %63 = call ptr @proto_tree_add_item(ptr noundef %59, i32 noundef %60, ptr noundef %61, i32 noundef %62, i32 noundef 1, i32 noundef 0)
  %64 = load i32, ptr %9, align 4
  %65 = add i32 %64, 1
  store i32 %65, ptr %9, align 4
  %66 = load ptr, ptr %8, align 8
  %67 = load i32, ptr @hf_uftp_keyinfoack_hlen, align 4
  %68 = load ptr, ptr %4, align 8
  %69 = load i32, ptr %9, align 4
  %70 = load i32, ptr %10, align 4
  %71 = load i32, ptr %10, align 4
  %72 = load i32, ptr %10, align 4
  %73 = sdiv i32 %72, 4
  %74 = call ptr (ptr, i32, ptr, i32, i32, i32, ptr, ...) @proto_tree_add_uint_format_value(ptr noundef %66, i32 noundef %67, ptr noundef %68, i32 noundef %69, i32 noundef 1, i32 noundef %70, ptr noundef @.str.418, i32 noundef %71, i32 noundef %73)
  %75 = load i32, ptr %9, align 4
  %76 = add i32 %75, 1
  store i32 %76, ptr %9, align 4
  %77 = load ptr, ptr %8, align 8
  %78 = load i32, ptr @hf_uftp_keyinfoack_verify_len, align 4
  %79 = load ptr, ptr %4, align 8
  %80 = load i32, ptr %9, align 4
  %81 = call ptr @proto_tree_add_item(ptr noundef %77, i32 noundef %78, ptr noundef %79, i32 noundef %80, i32 noundef 2, i32 noundef 0)
  %82 = load i32, ptr %9, align 4
  %83 = add i32 %82, 2
  store i32 %83, ptr %9, align 4
  %84 = load ptr, ptr %8, align 8
  %85 = load i32, ptr @hf_uftp_keyinfoack_verify_data, align 4
  %86 = load ptr, ptr %4, align 8
  %87 = load i32, ptr %9, align 4
  %88 = load i32, ptr %11, align 4
  %89 = call ptr @proto_tree_add_item(ptr noundef %84, i32 noundef %85, ptr noundef %86, i32 noundef %87, i32 noundef %88, i32 noundef 0)
  store i32 0, ptr %12, align 4
  br label %90

90:                                               ; preds = %50, %41, %16
  call void @llvm.lifetime.end.p0(i64 4, ptr %11) #6
  call void @llvm.lifetime.end.p0(i64 4, ptr %10) #6
  call void @llvm.lifetime.end.p0(i64 4, ptr %9) #6
  call void @llvm.lifetime.end.p0(i64 8, ptr %8) #6
  call void @llvm.lifetime.end.p0(i64 8, ptr %7) #6
  %91 = load i32, ptr %12, align 4
  switch i32 %91, label %93 [
    i32 0, label %92
    i32 1, label %92
  ]

92:                                               ; preds = %90, %90
  ret void

93:                                               ; preds = %90
  unreachable
}