; Function Attrs: null_pointer_is_valid sspstrong uwtable
define internal fastcc void @dissect_uftp_keyinfoack(ptr noundef %0, ptr noundef %1, ptr noundef %2) unnamed_addr #0 {
  %4 = tail call i32 @tvb_reported_length(ptr noundef %0)
  %5 = icmp ult i32 %4, 4
  br i1 %5, label %6, label %9

6:                                                ; preds = %3
  %7 = tail call i32 @tvb_reported_length(ptr noundef %0)
  %8 = tail call ptr (ptr, ptr, ptr, ptr, i32, i32, ptr, ...) @proto_tree_add_expert_format(ptr noundef %2, ptr noundef %1, ptr noundef nonnull @ei_uftp_length_invalid, ptr noundef %0, i32 noundef 0, i32 noundef -1, ptr noundef nonnull @.str.416, i32 noundef %7)
  br label %35

9:                                                ; preds = %3
  %10 = tail call zeroext i8 @tvb_get_uint8(ptr noundef %0, i32 noundef 1)
  %11 = zext i8 %10 to i32
  %12 = shl nuw nsw i32 %11, 2
  %13 = tail call zeroext i8 @tvb_get_uint8(ptr noundef %0, i32 noundef 2)
  %14 = zext i8 %13 to i32
  %15 = tail call i32 @tvb_reported_length(ptr noundef %0)
  %16 = icmp slt i32 %15, %12
  %17 = add nuw nsw i32 %14, 4
  %18 = icmp samesign ult i32 %12, %17
  %or.cond = select i1 %16, i1 true, i1 %18
  br i1 %or.cond, label %19, label %22

19:                                               ; preds = %9
  %20 = tail call i32 @tvb_reported_length(ptr noundef %0)
  %21 = tail call ptr (ptr, ptr, ptr, ptr, i32, i32, ptr, ...) @proto_tree_add_expert_format(ptr noundef %2, ptr noundef %1, ptr noundef nonnull @ei_uftp_length_invalid, ptr noundef %0, i32 noundef 0, i32 noundef -1, ptr noundef nonnull @.str.417, i32 noundef %20, i32 noundef %12)
  br label %35

22:                                               ; preds = %9
  %23 = load i32, ptr @hf_uftp_keyinfoack, align 4
  %24 = tail call ptr @proto_tree_add_item(ptr noundef %2, i32 noundef %23, ptr noundef %0, i32 noundef 0, i32 noundef -1, i32 noundef 0)
  %25 = load i32, ptr @ett_uftp_keyinfoack, align 4
  %26 = tail call ptr @proto_item_add_subtree(ptr noundef %24, i32 noundef %25)
  %27 = load i32, ptr @hf_uftp_keyinfoack_func, align 4
  %28 = tail call ptr @proto_tree_add_item(ptr noundef %26, i32 noundef %27, ptr noundef %0, i32 noundef 0, i32 noundef 1, i32 noundef 0)
  %29 = load i32, ptr @hf_uftp_keyinfoack_hlen, align 4
  %30 = tail call ptr (ptr, i32, ptr, i32, i32, i32, ptr, ...) @proto_tree_add_uint_format_value(ptr noundef %26, i32 noundef %29, ptr noundef %0, i32 noundef 1, i32 noundef 1, i32 noundef %12, ptr noundef nonnull @.str.418, i32 noundef %12, i32 noundef %11)
  %31 = load i32, ptr @hf_uftp_keyinfoack_verify_len, align 4
  %32 = tail call ptr @proto_tree_add_item(ptr noundef %26, i32 noundef %31, ptr noundef %0, i32 noundef 2, i32 noundef 2, i32 noundef 0)
  %33 = load i32, ptr @hf_uftp_keyinfoack_verify_data, align 4
  %34 = tail call ptr @proto_tree_add_item(ptr noundef %26, i32 noundef %33, ptr noundef %0, i32 noundef 4, i32 noundef %14, i32 noundef 0)
  br label %35

35:                                               ; preds = %22, %19, %6
  ret void
}